(i__main__
student
p0
(dp1
S's2marks'
p2
(lp3
I18
aI19
aF16.5
aI19
aI17
aF10.5
asS'asmarks'
p4
(lp5
I5
aI5
aI4
aI5
aI4
aI5
asS'total1'
p6
F254.0
sS's1marks'
p7
(lp8
I19
aI18
aI17
aI18
aF16.5
aF10.5
asS'eid'
p9
I7531
sS'apmarks'
p10
(lp11
I4
aI5
aI4
aI5
aI4
aI5
asS'total'
p12
(lp13
I46
aI47
aF41.5
aI47
aF41.5
aF31.0
asS'name'
p14
S'Eappen Mathew'
p15
sb.